target datalayout = "e-m:e-p270:32:32-p271:32:32-p272:64:64-i64:64-i128:128-f80:128-n8:16:32:64-S128"
target triple = "x86_64-pc-linux-gnu"

%"class.cv::Rect_" = type { i32, i32, i32, i32 }

@.str.31 = private unnamed_addr constant [7 x i8] c"(iiii)\00", align 1

; Function Attrs: mustprogress uwtable
define hidden noundef ptr @_Z13pyopencv_fromIN2cv5Rect_IiEEEP7_objectRKT_(ptr noundef nonnull align 4 dereferenceable(16) %0) #4 {
  %2 = alloca ptr, align 8
  store ptr %0, ptr %2, align 8
  %3 = load ptr, ptr %2, align 8
  %4 = getelementptr inbounds %"class.cv::Rect_", ptr %3, i32 0, i32 0
  %5 = load i32, ptr %4, align 4
  %6 = load ptr, ptr %2, align 8
  %7 = getelementptr inbounds %"class.cv::Rect_", ptr %6, i32 0, i32 1
  %8 = load i32, ptr %7, align 4
  %9 = load ptr, ptr %2, align 8
  %10 = getelementptr inbounds %"class.cv::Rect_", ptr %9, i32 0, i32 2
  %11 = load i32, ptr %10, align 4
  %12 = load ptr, ptr %2, align 8
  %13 = getelementptr inbounds %"class.cv::Rect_", ptr %12, i32 0, i32 3
  %14 = load i32, ptr %13, align 4
  %15 = call ptr (ptr, ...) @Py_BuildValue(ptr noundef @.str.31, i32 noundef %5, i32 noundef %8, i32 noundef %11, i32 noundef %14)
  ret ptr %15
}